; Function Attrs: nounwind sspstrong uwtable
define dso_local void @sdhci_uninitfn(ptr noundef captures(none) %s) local_unnamed_addr #0 {
entry:
  %insert_timer = getelementptr inbounds nuw i8, ptr %s, i64 3120
  %0 = load ptr, ptr %insert_timer, align 16
  %tobool.not.i = icmp eq ptr %0, null
  br i1 %tobool.not.i, label %timer_free.exit, label %if.then.i

if.then.i:                                        ; preds = %entry
  tail call void @timer_del(ptr noundef nonnull %0) #12
  tail call void @g_free(ptr noundef nonnull %0) #12
  br label %timer_free.exit

timer_free.exit:                                  ; preds = %entry, %if.then.i
  %transfer_timer = getelementptr inbounds nuw i8, ptr %s, i64 3128
  %1 = load ptr, ptr %transfer_timer, align 8
  %tobool.not.i4 = icmp eq ptr %1, null
  br i1 %tobool.not.i4, label %timer_free.exit6, label %if.then.i5

if.then.i5:                                       ; preds = %timer_free.exit
  tail call void @timer_del(ptr noundef nonnull %1) #12
  tail call void @g_free(ptr noundef nonnull %1) #12
  br label %timer_free.exit6

timer_free.exit6:                                 ; preds = %timer_free.exit, %if.then.i5
  %fifo_buffer = getelementptr inbounds nuw i8, ptr %s, i64 3248
  %2 = load ptr, ptr %fifo_buffer, align 16
  tail call void @g_free(ptr noundef %2) #12
  store ptr null, ptr %fifo_buffer, align 16
  ret void
}